; Function Attrs: mustprogress nofree norecurse nosync nounwind willreturn memory(readwrite, inaccessiblemem: none) uwtable
define internal noundef nonnull ptr @meth_get__self__(ptr noundef readonly captures(none) %0, ptr readnone captures(none) %1) #3 {
  %3 = getelementptr inbounds nuw i8, ptr %0, i64 16
  %4 = load ptr, ptr %3, align 8, !tbaa !22
  %5 = getelementptr inbounds nuw i8, ptr %4, i64 16
  %6 = load i32, ptr %5, align 8, !tbaa !4
  %7 = and i32 %6, 32
  %.not.i = icmp eq i32 %7, 0
  br i1 %.not.i, label %8, label %PyCFunction_GET_SELF.exit

8:                                                ; preds = %2
  %9 = getelementptr inbounds nuw i8, ptr %0, i64 24
  %10 = load ptr, ptr %9, align 8, !tbaa !23
  br label %PyCFunction_GET_SELF.exit

PyCFunction_GET_SELF.exit:                        ; preds = %2, %8
  %.0.i = phi ptr [ %10, %8 ], [ null, %2 ]
  %11 = icmp eq ptr %.0.i, null
  %spec.store.select = select i1 %11, ptr @_Py_NoneStruct, ptr %.0.i
  %12 = load i32, ptr %spec.store.select, align 8, !tbaa !14
  %13 = icmp slt i32 %12, 0
  br i1 %13, label %_Py_NewRef.exit, label %14

14:                                               ; preds = %PyCFunction_GET_SELF.exit
  %15 = add nuw i32 %12, 1
  store i32 %15, ptr %spec.store.select, align 8, !tbaa !14
  br label %_Py_NewRef.exit

_Py_NewRef.exit:                                  ; preds = %PyCFunction_GET_SELF.exit, %14
  ret ptr %spec.store.select
}